target datalayout = "e-m:e-p270:32:32-p271:32:32-p272:64:64-i64:64-i128:128-f80:128-n8:16:32:64-S128"
target triple = "x86_64-pc-linux-gnu"

%struct.H5F_t = type { ptr, ptr, ptr, ptr, i32, ptr, i8, i8, ptr, i32 }
%struct.H5FO_obj_count_t = type { i64, i64 }

@.str = private unnamed_addr constant [98 x i8] c"generated/home/dtcxzyw/WorkSpace/Projects/compilers/llvm-opt-benchmark/bench/hdf5/hdf5/src/H5FO.c\00", align 1
@H5E_CACHE_g = external global i64, align 8
@H5E_NOSPACE_g = external global i64, align 8
@.str.2 = private unnamed_addr constant [25 x i8] c"memory allocation failed\00", align 1
@H5E_CANTINSERT_g = external global i64, align 8
@.str.3 = private unnamed_addr constant [35 x i8] c"can't insert object into container\00", align 1
@__func__.H5FO_top_incr = private unnamed_addr constant [14 x i8] c"H5FO_top_incr\00", align 1
@H5_H5FO_obj_count_t_reg_free_list = internal global { i8, [3 x i8], i32, i32, [4 x i8], ptr, i64, ptr } { i8 0, [3 x i8] zeroinitializer, i32 0, i32 0, [4 x i8] zeroinitializer, ptr @.str.11, i64 16, ptr null }, align 8

; Function Attrs: nounwind uwtable
define i32 @H5FO_top_incr(ptr noundef %0, i64 noundef %1) #0 {
  %3 = alloca ptr, align 8
  %4 = alloca i64, align 8
  %5 = alloca ptr, align 8
  %6 = alloca i32, align 4
  %7 = alloca i8, align 1
  store ptr %0, ptr %3, align 8, !tbaa !3
  store i64 %1, ptr %4, align 8, !tbaa !39
  call void @llvm.lifetime.start.p0(i64 8, ptr %5) #3
  call void @llvm.lifetime.start.p0(i64 4, ptr %6) #3
  store i32 0, ptr %6, align 4, !tbaa !8
  call void @llvm.lifetime.start.p0(i64 1, ptr %7) #3
  store i8 0, ptr %7, align 1, !tbaa !10
  %8 = load ptr, ptr %3, align 8, !tbaa !3
  %9 = getelementptr inbounds nuw %struct.H5F_t, ptr %8, i32 0, i32 5
  %10 = load ptr, ptr %9, align 8, !tbaa !49
  %11 = call ptr @H5SL_search(ptr noundef %10, ptr noundef %4)
  store ptr %11, ptr %5, align 8, !tbaa !50
  %12 = icmp ne ptr null, %11
  br i1 %12, label %13, label %18

13:                                               ; preds = %2
  %14 = load ptr, ptr %5, align 8, !tbaa !50
  %15 = getelementptr inbounds nuw %struct.H5FO_obj_count_t, ptr %14, i32 0, i32 1
  %16 = load i64, ptr %15, align 8, !tbaa !52
  %17 = add i64 %16, 1
  store i64 %17, ptr %15, align 8, !tbaa !52
  br label %74

18:                                               ; preds = %2
  %19 = call noalias ptr @H5FL_reg_malloc(ptr noundef @H5_H5FO_obj_count_t_reg_free_list)
  store ptr %19, ptr %5, align 8, !tbaa !50
  %20 = icmp eq ptr null, %19
  br i1 %20, label %21, label %40

21:                                               ; preds = %18
  br label %22

22:                                               ; preds = %21
  br label %23

23:                                               ; preds = %22
  br label %24

24:                                               ; preds = %23
  %25 = load i64, ptr @H5E_CACHE_g, align 8, !tbaa !39
  %26 = load i64, ptr @H5E_NOSPACE_g, align 8, !tbaa !39
  %27 = call i32 (ptr, ptr, i32, i64, i64, ptr, ...) @H5E_printf_stack(ptr noundef @.str, ptr noundef @__func__.H5FO_top_incr, i32 noundef 440, i64 noundef %25, i64 noundef %26, ptr noundef @.str.2)
  br label %28

28:                                               ; preds = %24
  br label %29

29:                                               ; preds = %28
  store i8 1, ptr %7, align 1, !tbaa !10
  %30 = load i8, ptr %7, align 1, !tbaa !10, !range !40, !noundef !41
  %31 = trunc i8 %30 to i1
  %32 = zext i1 %31 to i8
  store i8 %32, ptr %7, align 1, !tbaa !10
  br label %33

33:                                               ; preds = %29
  br label %34

34:                                               ; preds = %33
  br label %35

35:                                               ; preds = %34
  store i32 -1, ptr %6, align 4, !tbaa !8
  br label %75

36:                                               ; No predecessors!
  br label %37

37:                                               ; preds = %36
  br label %38

38:                                               ; preds = %37
  br label %39

39:                                               ; preds = %38
  br label %40

40:                                               ; preds = %39, %18
  %41 = load i64, ptr %4, align 8, !tbaa !39
  %42 = load ptr, ptr %5, align 8, !tbaa !50
  %43 = getelementptr inbounds nuw %struct.H5FO_obj_count_t, ptr %42, i32 0, i32 0
  store i64 %41, ptr %43, align 8, !tbaa !54
  %44 = load ptr, ptr %5, align 8, !tbaa !50
  %45 = getelementptr inbounds nuw %struct.H5FO_obj_count_t, ptr %44, i32 0, i32 1
  store i64 1, ptr %45, align 8, !tbaa !52
  %46 = load ptr, ptr %3, align 8, !tbaa !3
  %47 = getelementptr inbounds nuw %struct.H5F_t, ptr %46, i32 0, i32 5
  %48 = load ptr, ptr %47, align 8, !tbaa !49
  %49 = load ptr, ptr %5, align 8, !tbaa !50
  %50 = getelementptr inbounds nuw %struct.H5FO_obj_count_t, ptr %49, i32 0, i32 0
  %51 = load ptr, ptr %5, align 8, !tbaa !50
  %52 = call i32 @H5SL_insert(ptr noundef %48, ptr noundef %50, ptr noundef %51)
  %53 = icmp slt i32 %52, 0
  br i1 %53, label %54, label %73

54:                                               ; preds = %40
  br label %55

55:                                               ; preds = %54
  br label %56

56:                                               ; preds = %55
  br label %57

57:                                               ; preds = %56
  %58 = load i64, ptr @H5E_CACHE_g, align 8, !tbaa !39
  %59 = load i64, ptr @H5E_CANTINSERT_g, align 8, !tbaa !39
  %60 = call i32 (ptr, ptr, i32, i64, i64, ptr, ...) @H5E_printf_stack(ptr noundef @.str, ptr noundef @__func__.H5FO_top_incr, i32 noundef 448, i64 noundef %58, i64 noundef %59, ptr noundef @.str.3)
  br label %61

61:                                               ; preds = %57
  br label %62

62:                                               ; preds = %61
  store i8 1, ptr %7, align 1, !tbaa !10
  %63 = load i8, ptr %7, align 1, !tbaa !10, !range !40, !noundef !41
  %64 = trunc i8 %63 to i1
  %65 = zext i1 %64 to i8
  store i8 %65, ptr %7, align 1, !tbaa !10
  br label %66

66:                                               ; preds = %62
  br label %67

67:                                               ; preds = %66
  br label %68

68:                                               ; preds = %67
  store i32 -1, ptr %6, align 4, !tbaa !8
  br label %75

69:                                               ; No predecessors!
  br label %70

70:                                               ; preds = %69
  br label %71

71:                                               ; preds = %70
  br label %72

72:                                               ; preds = %71
  br label %73

73:                                               ; preds = %72, %40
  br label %74

74:                                               ; preds = %73, %13
  br label %75

75:                                               ; preds = %74, %68, %35
  %76 = load i32, ptr %6, align 4, !tbaa !8
  call void @llvm.lifetime.end.p0(i64 1, ptr %7) #3
  call void @llvm.lifetime.end.p0(i64 4, ptr %6) #3
  call void @llvm.lifetime.end.p0(i64 8, ptr %5) #3
  ret i32 %76
}