; Function Attrs: nounwind uwtable
define range(i32 -1, 1) i32 @H5FO_top_incr(ptr noundef readonly captures(none) %0, i64 noundef %1) local_unnamed_addr #0 {
  %3 = alloca i64, align 8
  store i64 %1, ptr %3, align 8, !tbaa !36
  %4 = getelementptr inbounds nuw i8, ptr %0, i64 40
  %5 = load ptr, ptr %4, align 8, !tbaa !43
  %6 = call ptr @H5SL_search(ptr noundef %5, ptr noundef nonnull %3) #2
  %.not = icmp eq ptr %6, null
  br i1 %.not, label %11, label %7

7:                                                ; preds = %2
  %8 = getelementptr inbounds nuw i8, ptr %6, i64 8
  %9 = load i64, ptr %8, align 8, !tbaa !44
  %10 = add i64 %9, 1
  store i64 %10, ptr %8, align 8, !tbaa !44
  br label %28

11:                                               ; preds = %2
  %12 = call noalias ptr @H5FL_reg_malloc(ptr noundef nonnull @H5_H5FO_obj_count_t_reg_free_list) #2
  %13 = icmp eq ptr %12, null
  br i1 %13, label %14, label %18

14:                                               ; preds = %11
  %15 = load i64, ptr @H5E_CACHE_g, align 8, !tbaa !36
  %16 = load i64, ptr @H5E_NOSPACE_g, align 8, !tbaa !36
  %17 = call i32 (ptr, ptr, i32, i64, i64, ptr, ...) @H5E_printf_stack(ptr noundef nonnull @.str, ptr noundef nonnull @__func__.H5FO_top_incr, i32 noundef 440, i64 noundef %15, i64 noundef %16, ptr noundef nonnull @.str.2) #2
  br label %28

18:                                               ; preds = %11
  %19 = load i64, ptr %3, align 8, !tbaa !36
  store i64 %19, ptr %12, align 8, !tbaa !46
  %20 = getelementptr inbounds nuw i8, ptr %12, i64 8
  store i64 1, ptr %20, align 8, !tbaa !44
  %21 = load ptr, ptr %4, align 8, !tbaa !43
  %22 = call i32 @H5SL_insert(ptr noundef %21, ptr noundef nonnull %12, ptr noundef nonnull %12) #2
  %23 = icmp slt i32 %22, 0
  br i1 %23, label %24, label %28

24:                                               ; preds = %18
  %25 = load i64, ptr @H5E_CACHE_g, align 8, !tbaa !36
  %26 = load i64, ptr @H5E_CANTINSERT_g, align 8, !tbaa !36
  %27 = call i32 (ptr, ptr, i32, i64, i64, ptr, ...) @H5E_printf_stack(ptr noundef nonnull @.str, ptr noundef nonnull @__func__.H5FO_top_incr, i32 noundef 448, i64 noundef %25, i64 noundef %26, ptr noundef nonnull @.str.3) #2
  br label %28

28:                                               ; preds = %7, %18, %24, %14
  %.0 = phi i32 [ 0, %7 ], [ -1, %14 ], [ -1, %24 ], [ 0, %18 ]
  ret i32 %.0
}